; ModuleID = 'main.fd4edd9f-cgu.0'
source_filename = "main.fd4edd9f-cgu.0"
target datalayout = "e-m:e-p270:32:32-p271:32:32-p272:64:64-i64:64-f80:128-n8:16:32:64-S128"
target triple = "x86_64-unknown-linux-gnu"

%"core::fmt::Arguments<'_>" = type { { ptr, i64 }, { ptr, i64 }, { ptr, i64 } }

@vtable.0 = private unnamed_addr constant <{ ptr, [16 x i8], ptr, ptr, ptr }> <{ ptr @"_ZN4core3ptr85drop_in_place$LT$std..rt..lang_start$LT$$LP$$RP$$GT$..$u7b$$u7b$closure$u7d$$u7d$$GT$17h756d60ec90e7c756E", [16 x i8] c"\08\00\00\00\00\00\00\00\08\00\00\00\00\00\00\00", ptr @"_ZN4core3ops8function6FnOnce40call_once$u7b$$u7b$vtable.shim$u7d$$u7d$17h979775d0aae1eef3E", ptr @"_ZN3std2rt10lang_start28_$u7b$$u7b$closure$u7d$$u7d$17he697d9003afb7fa4E", ptr @"_ZN3std2rt10lang_start28_$u7b$$u7b$closure$u7d$$u7d$17he697d9003afb7fa4E" }>, align 8
@alloc_91c7fa63c3cfeaa3c795652d5cf060e4 = private unnamed_addr constant <{ [12 x i8] }> <{ [12 x i8] c"invalid args" }>, align 1
@alloc_560206a49c61adca6f3f0639a12632eb = private unnamed_addr constant <{ ptr, [8 x i8] }> <{ ptr @alloc_91c7fa63c3cfeaa3c795652d5cf060e4, [8 x i8] c"\0C\00\00\00\00\00\00\00" }>, align 8
@alloc_0f3d7beb2672f296d76a42c95890bef9 = private unnamed_addr constant <{ [75 x i8] }> <{ [75 x i8] c"/rustc/90c541806f23a127002de5b4038be731ba1458ca/library/core/src/fmt/mod.rs" }>, align 1
@alloc_ea676e06474b3ad20dc2b78cc1c22fa8 = private unnamed_addr constant <{ ptr, [16 x i8] }> <{ ptr @alloc_0f3d7beb2672f296d76a42c95890bef9, [16 x i8] c"K\00\00\00\00\00\00\00\9E\01\00\00\0D\00\00\00" }>, align 8
@alloc_584d991c255ecc0b9a8eb25813e7c09e = private unnamed_addr constant <{ ptr, [16 x i8] }> <{ ptr @alloc_0f3d7beb2672f296d76a42c95890bef9, [16 x i8] c"K\00\00\00\00\00\00\00\91\01\00\00\0D\00\00\00" }>, align 8
@alloc_513570631223a12912d85da2bec3b15a = private unnamed_addr constant <{}> zeroinitializer, align 8
@_ZN4main1I17hfd8512f6a13f3d22E = internal constant <{ [4 x i8] }> <{ [4 x i8] c"\E8\03\00\00" }>, align 4
@alloc_e9ed63b1feff7b7c990db324c74fcf1f = private unnamed_addr constant <{ [14 x i8] }> <{ [14 x i8] c"Hello Muruga!\0A" }>, align 1
@alloc_afbac0f08dcf8d9789d9406e9526cc3a = private unnamed_addr constant <{ ptr, [8 x i8] }> <{ ptr @alloc_e9ed63b1feff7b7c990db324c74fcf1f, [8 x i8] c"\0E\00\00\00\00\00\00\00" }>, align 8
@alloc_3ba7eeeabd3d9c4a56f56d0cfe62277d = private unnamed_addr constant <{ [11 x i8] }> <{ [11 x i8] c"src/main.rs" }>, align 1
@alloc_fae885555304831bf7d3c4eb282269c6 = private unnamed_addr constant <{ ptr, [16 x i8] }> <{ ptr @alloc_3ba7eeeabd3d9c4a56f56d0cfe62277d, [16 x i8] c"\0B\00\00\00\00\00\00\00\0C\00\00\00\0F\00\00\00" }>, align 8
@str.1 = internal constant [28 x i8] c"attempt to add with overflow"
@alloc_47775f39b7d25b109ba7941930fabe18 = private unnamed_addr constant <{ [2 x i8] }> <{ [2 x i8] c"c=" }>, align 1
@alloc_41a776d8d06dc2b9b0480e88fa257ffe = private unnamed_addr constant <{ [1 x i8] }> <{ [1 x i8] c"," }>, align 1
@alloc_49a1e817e911805af64bbc7efb390101 = private unnamed_addr constant <{ [1 x i8] }> <{ [1 x i8] c"\0A" }>, align 1
@alloc_8a58bd149208c105c757425159607f46 = private unnamed_addr constant <{ ptr, [8 x i8], ptr, [8 x i8], ptr, [8 x i8] }> <{ ptr @alloc_47775f39b7d25b109ba7941930fabe18, [8 x i8] c"\02\00\00\00\00\00\00\00", ptr @alloc_41a776d8d06dc2b9b0480e88fa257ffe, [8 x i8] c"\01\00\00\00\00\00\00\00", ptr @alloc_49a1e817e911805af64bbc7efb390101, [8 x i8] c"\01\00\00\00\00\00\00\00" }>, align 8

; std::sys_common::backtrace::__rust_begin_short_backtrace
; Function Attrs: noinline nonlazybind uwtable
define internal void @_ZN3std10sys_common9backtrace28__rust_begin_short_backtrace17hb8fc7987ccf73b2cE(ptr %f) unnamed_addr #0 {
start:
; call core::ops::function::FnOnce::call_once
  call void @_ZN4core3ops8function6FnOnce9call_once17h52abfc5a263c59c8E(ptr %f)
  call void asm sideeffect "", "~{memory}"(), !srcloc !3
  ret void
}

; std::rt::lang_start
; Function Attrs: nonlazybind uwtable
define hidden i64 @_ZN3std2rt10lang_start17hc1bc80fbbc2f1194E(ptr %main, i64 %argc, ptr %argv, i8 %sigpipe) unnamed_addr #1 {
start:
  %_8 = alloca ptr, align 8
  %_5 = alloca i64, align 8
  store ptr %main, ptr %_8, align 8
; call std::rt::lang_start_internal
  %0 = call i64 @_ZN3std2rt19lang_start_internal17h76f3e81e6b8f13f9E(ptr align 1 %_8, ptr align 8 @vtable.0, i64 %argc, ptr %argv, i8 %sigpipe)
  store i64 %0, ptr %_5, align 8
  %1 = load i64, ptr %_5, align 8, !noundef !4
  ret i64 %1
}

; std::rt::lang_start::{{closure}}
; Function Attrs: inlinehint nonlazybind uwtable
define internal i32 @"_ZN3std2rt10lang_start28_$u7b$$u7b$closure$u7d$$u7d$17he697d9003afb7fa4E"(ptr align 8 %_1) unnamed_addr #2 {
start:
  %self = alloca i8, align 1
  %_4 = load ptr, ptr %_1, align 8, !nonnull !4, !noundef !4
; call std::sys_common::backtrace::__rust_begin_short_backtrace
  call void @_ZN3std10sys_common9backtrace28__rust_begin_short_backtrace17hb8fc7987ccf73b2cE(ptr %_4)
; call <() as std::process::Termination>::report
  %0 = call i8 @"_ZN54_$LT$$LP$$RP$$u20$as$u20$std..process..Termination$GT$6report17h85ef3eb093c2bd65E"()
  store i8 %0, ptr %self, align 1
  %_6 = load i8, ptr %self, align 1, !noundef !4
  %1 = zext i8 %_6 to i32
  ret i32 %1
}

; core::fmt::ArgumentV1::new_display
; Function Attrs: inlinehint nonlazybind uwtable
define internal { ptr, ptr } @_ZN4core3fmt10ArgumentV111new_display17h11087655e622d687E(ptr align 4 %x) unnamed_addr #2 {
start:
  %0 = alloca { ptr, ptr }, align 8
  store ptr %x, ptr %0, align 8
  %1 = getelementptr inbounds { ptr, ptr }, ptr %0, i32 0, i32 1
  store ptr @"_ZN4core3fmt3num3imp52_$LT$impl$u20$core..fmt..Display$u20$for$u20$i32$GT$3fmt17h6d2fdcf80a0ff9afE", ptr %1, align 8
  %2 = getelementptr inbounds { ptr, ptr }, ptr %0, i32 0, i32 0
  %3 = load ptr, ptr %2, align 8, !nonnull !4, !align !5, !noundef !4
  %4 = getelementptr inbounds { ptr, ptr }, ptr %0, i32 0, i32 1
  %5 = load ptr, ptr %4, align 8, !nonnull !4, !noundef !4
  %6 = insertvalue { ptr, ptr } poison, ptr %3, 0
  %7 = insertvalue { ptr, ptr } %6, ptr %5, 1
  ret { ptr, ptr } %7
}

; core::fmt::Arguments::new_v1
; Function Attrs: inlinehint nonlazybind uwtable
define internal void @_ZN4core3fmt9Arguments6new_v117h34f994cba5e45092E(ptr sret(%"core::fmt::Arguments<'_>") %0, ptr align 8 %pieces.0, i64 %pieces.1, ptr align 8 %args.0, i64 %args.1) unnamed_addr #2 {
start:
  %_14 = alloca { ptr, i64 }, align 8
  %_12 = alloca %"core::fmt::Arguments<'_>", align 8
  %_3 = alloca i8, align 1
  %_4 = icmp ult i64 %pieces.1, %args.1
  br i1 %_4, label %bb1, label %bb2

bb2:                                              ; preds = %start
  %_9 = add i64 %args.1, 1
  %_7 = icmp ugt i64 %pieces.1, %_9
  %1 = zext i1 %_7 to i8
  store i8 %1, ptr %_3, align 1
  br label %bb3

bb1:                                              ; preds = %start
  store i8 1, ptr %_3, align 1
  br label %bb3

bb3:                                              ; preds = %bb2, %bb1
  %2 = load i8, ptr %_3, align 1, !range !6, !noundef !4
  %3 = trunc i8 %2 to i1
  br i1 %3, label %bb4, label %bb6

bb6:                                              ; preds = %bb3
  store ptr null, ptr %_14, align 8
  %4 = getelementptr inbounds %"core::fmt::Arguments<'_>", ptr %0, i32 0, i32 1
  %5 = getelementptr inbounds { ptr, i64 }, ptr %4, i32 0, i32 0
  store ptr %pieces.0, ptr %5, align 8
  %6 = getelementptr inbounds { ptr, i64 }, ptr %4, i32 0, i32 1
  store i64 %pieces.1, ptr %6, align 8
  %7 = getelementptr inbounds { ptr, i64 }, ptr %_14, i32 0, i32 0
  %8 = load ptr, ptr %7, align 8, !align !7, !noundef !4
  %9 = getelementptr inbounds { ptr, i64 }, ptr %_14, i32 0, i32 1
  %10 = load i64, ptr %9, align 8
  %11 = getelementptr inbounds { ptr, i64 }, ptr %0, i32 0, i32 0
  store ptr %8, ptr %11, align 8
  %12 = getelementptr inbounds { ptr, i64 }, ptr %0, i32 0, i32 1
  store i64 %10, ptr %12, align 8
  %13 = getelementptr inbounds %"core::fmt::Arguments<'_>", ptr %0, i32 0, i32 2
  %14 = getelementptr inbounds { ptr, i64 }, ptr %13, i32 0, i32 0
  store ptr %args.0, ptr %14, align 8
  %15 = getelementptr inbounds { ptr, i64 }, ptr %13, i32 0, i32 1
  store i64 %args.1, ptr %15, align 8
  ret void

bb4:                                              ; preds = %bb3
; call core::fmt::Arguments::new_const
  call void @_ZN4core3fmt9Arguments9new_const17hf35cc8cac97f4645E(ptr sret(%"core::fmt::Arguments<'_>") %_12, ptr align 8 @alloc_560206a49c61adca6f3f0639a12632eb, i64 1)
; call core::panicking::panic_fmt
  call void @_ZN4core9panicking9panic_fmt17h0f6ef0178afce4f2E(ptr %_12, ptr align 8 @alloc_ea676e06474b3ad20dc2b78cc1c22fa8) #7
  unreachable
}

; core::fmt::Arguments::new_const
; Function Attrs: inlinehint nonlazybind uwtable
define internal void @_ZN4core3fmt9Arguments9new_const17hf35cc8cac97f4645E(ptr sret(%"core::fmt::Arguments<'_>") %0, ptr align 8 %pieces.0, i64 %pieces.1) unnamed_addr #2 {
start:
  %_7 = alloca { ptr, i64 }, align 8
  %_5 = alloca %"core::fmt::Arguments<'_>", align 8
  %_2 = icmp ugt i64 %pieces.1, 1
  br i1 %_2, label %bb1, label %bb3

bb3:                                              ; preds = %start
  store ptr null, ptr %_7, align 8
  %1 = getelementptr inbounds %"core::fmt::Arguments<'_>", ptr %0, i32 0, i32 1
  %2 = getelementptr inbounds { ptr, i64 }, ptr %1, i32 0, i32 0
  store ptr %pieces.0, ptr %2, align 8
  %3 = getelementptr inbounds { ptr, i64 }, ptr %1, i32 0, i32 1
  store i64 %pieces.1, ptr %3, align 8
  %4 = getelementptr inbounds { ptr, i64 }, ptr %_7, i32 0, i32 0
  %5 = load ptr, ptr %4, align 8, !align !7, !noundef !4
  %6 = getelementptr inbounds { ptr, i64 }, ptr %_7, i32 0, i32 1
  %7 = load i64, ptr %6, align 8
  %8 = getelementptr inbounds { ptr, i64 }, ptr %0, i32 0, i32 0
  store ptr %5, ptr %8, align 8
  %9 = getelementptr inbounds { ptr, i64 }, ptr %0, i32 0, i32 1
  store i64 %7, ptr %9, align 8
  %10 = getelementptr inbounds %"core::fmt::Arguments<'_>", ptr %0, i32 0, i32 2
  %11 = getelementptr inbounds { ptr, i64 }, ptr %10, i32 0, i32 0
  store ptr @alloc_513570631223a12912d85da2bec3b15a, ptr %11, align 8
  %12 = getelementptr inbounds { ptr, i64 }, ptr %10, i32 0, i32 1
  store i64 0, ptr %12, align 8
  ret void

bb1:                                              ; preds = %start
; call core::fmt::Arguments::new_const
  call void @_ZN4core3fmt9Arguments9new_const17hf35cc8cac97f4645E(ptr sret(%"core::fmt::Arguments<'_>") %_5, ptr align 8 @alloc_560206a49c61adca6f3f0639a12632eb, i64 1)
; call core::panicking::panic_fmt
  call void @_ZN4core9panicking9panic_fmt17h0f6ef0178afce4f2E(ptr %_5, ptr align 8 @alloc_584d991c255ecc0b9a8eb25813e7c09e) #7
  unreachable
}

; core::ops::function::FnOnce::call_once{{vtable.shim}}
; Function Attrs: inlinehint nonlazybind uwtable
define internal i32 @"_ZN4core3ops8function6FnOnce40call_once$u7b$$u7b$vtable.shim$u7d$$u7d$17h979775d0aae1eef3E"(ptr %_1) unnamed_addr #2 {
start:
  %_2 = alloca {}, align 1
  %0 = load ptr, ptr %_1, align 8, !nonnull !4, !noundef !4
; call core::ops::function::FnOnce::call_once
  %1 = call i32 @_ZN4core3ops8function6FnOnce9call_once17h199bfbaf765eaab0E(ptr %0)
  ret i32 %1
}

; core::ops::function::FnOnce::call_once
; Function Attrs: inlinehint nonlazybind uwtable
define internal i32 @_ZN4core3ops8function6FnOnce9call_once17h199bfbaf765eaab0E(ptr %0) unnamed_addr #2 personality ptr @rust_eh_personality {
start:
  %1 = alloca { ptr, i32 }, align 8
  %_2 = alloca {}, align 1
  %_1 = alloca ptr, align 8
  store ptr %0, ptr %_1, align 8
; invoke std::rt::lang_start::{{closure}}
  %2 = invoke i32 @"_ZN3std2rt10lang_start28_$u7b$$u7b$closure$u7d$$u7d$17he697d9003afb7fa4E"(ptr align 8 %_1)
          to label %bb1 unwind label %cleanup

bb3:                                              ; preds = %cleanup
  %3 = load ptr, ptr %1, align 8, !noundef !4
  %4 = getelementptr inbounds { ptr, i32 }, ptr %1, i32 0, i32 1
  %5 = load i32, ptr %4, align 8, !noundef !4
  %6 = insertvalue { ptr, i32 } poison, ptr %3, 0
  %7 = insertvalue { ptr, i32 } %6, i32 %5, 1
  resume { ptr, i32 } %7

cleanup:                                          ; preds = %start
  %8 = landingpad { ptr, i32 }
          cleanup
  %9 = extractvalue { ptr, i32 } %8, 0
  %10 = extractvalue { ptr, i32 } %8, 1
  %11 = getelementptr inbounds { ptr, i32 }, ptr %1, i32 0, i32 0
  store ptr %9, ptr %11, align 8
  %12 = getelementptr inbounds { ptr, i32 }, ptr %1, i32 0, i32 1
  store i32 %10, ptr %12, align 8
  br label %bb3

bb1:                                              ; preds = %start
  ret i32 %2
}

; core::ops::function::FnOnce::call_once
; Function Attrs: inlinehint nonlazybind uwtable
define internal void @_ZN4core3ops8function6FnOnce9call_once17h52abfc5a263c59c8E(ptr %_1) unnamed_addr #2 {
start:
  %_2 = alloca {}, align 1
  call void %_1()
  ret void
}

; core::ptr::drop_in_place<std::rt::lang_start<()>::{{closure}}>
; Function Attrs: inlinehint nonlazybind uwtable
define internal void @"_ZN4core3ptr85drop_in_place$LT$std..rt..lang_start$LT$$LP$$RP$$GT$..$u7b$$u7b$closure$u7d$$u7d$$GT$17h756d60ec90e7c756E"(ptr %_1) unnamed_addr #2 {
start:
  ret void
}

; <() as std::process::Termination>::report
; Function Attrs: inlinehint nonlazybind uwtable
define internal i8 @"_ZN54_$LT$$LP$$RP$$u20$as$u20$std..process..Termination$GT$6report17h85ef3eb093c2bd65E"() unnamed_addr #2 {
start:
  ret i8 0
}

; main::main
; Function Attrs: nonlazybind uwtable
define internal void @_ZN4main4main17hac82363469e1a7a2E() unnamed_addr #1 {
start:
  %_13 = alloca [2 x { ptr, ptr }], align 8
  %_9 = alloca %"core::fmt::Arguments<'_>", align 8
  %c = alloca i32, align 4
  %_2 = alloca %"core::fmt::Arguments<'_>", align 8
; call core::fmt::Arguments::new_const
  call void @_ZN4core3fmt9Arguments9new_const17hf35cc8cac97f4645E(ptr sret(%"core::fmt::Arguments<'_>") %_2, ptr align 8 @alloc_afbac0f08dcf8d9789d9406e9526cc3a, i64 1)
; call std::io::stdio::_print
  call void @_ZN3std2io5stdio6_print17h1de311987873daa6E(ptr %_2)
  %0 = call { i32, i1 } @llvm.sadd.with.overflow.i32(i32 100, i32 200)
  %_7.0 = extractvalue { i32, i1 } %0, 0
  %_7.1 = extractvalue { i32, i1 } %0, 1
  %1 = call i1 @llvm.expect.i1(i1 %_7.1, i1 false)
  br i1 %1, label %panic, label %bb3

bb3:                                              ; preds = %start
  store i32 %_7.0, ptr %c, align 4
; call core::fmt::ArgumentV1::new_display
  %2 = call { ptr, ptr } @_ZN4core3fmt10ArgumentV111new_display17h11087655e622d687E(ptr align 4 %c)
  %_14.0 = extractvalue { ptr, ptr } %2, 0
  %_14.1 = extractvalue { ptr, ptr } %2, 1
; call core::fmt::ArgumentV1::new_display
  %3 = call { ptr, ptr } @_ZN4core3fmt10ArgumentV111new_display17h11087655e622d687E(ptr align 4 @_ZN4main1I17hfd8512f6a13f3d22E)
  %_16.0 = extractvalue { ptr, ptr } %3, 0
  %_16.1 = extractvalue { ptr, ptr } %3, 1
  %4 = getelementptr inbounds [2 x { ptr, ptr }], ptr %_13, i64 0, i64 0
  %5 = getelementptr inbounds { ptr, ptr }, ptr %4, i32 0, i32 0
  store ptr %_14.0, ptr %5, align 8
  %6 = getelementptr inbounds { ptr, ptr }, ptr %4, i32 0, i32 1
  store ptr %_14.1, ptr %6, align 8
  %7 = getelementptr inbounds [2 x { ptr, ptr }], ptr %_13, i64 0, i64 1
  %8 = getelementptr inbounds { ptr, ptr }, ptr %7, i32 0, i32 0
  store ptr %_16.0, ptr %8, align 8
  %9 = getelementptr inbounds { ptr, ptr }, ptr %7, i32 0, i32 1
  store ptr %_16.1, ptr %9, align 8
; call core::fmt::Arguments::new_v1
  call void @_ZN4core3fmt9Arguments6new_v117h34f994cba5e45092E(ptr sret(%"core::fmt::Arguments<'_>") %_9, ptr align 8 @alloc_8a58bd149208c105c757425159607f46, i64 3, ptr align 8 %_13, i64 2)
; call std::io::stdio::_print
  call void @_ZN3std2io5stdio6_print17h1de311987873daa6E(ptr %_9)
  ret void

panic:                                            ; preds = %start
; call core::panicking::panic
  call void @_ZN4core9panicking5panic17h0ead933cb8f56d66E(ptr align 1 @str.1, i64 28, ptr align 8 @alloc_fae885555304831bf7d3c4eb282269c6) #7
  unreachable
}

; std::rt::lang_start_internal
; Function Attrs: nonlazybind uwtable
declare i64 @_ZN3std2rt19lang_start_internal17h76f3e81e6b8f13f9E(ptr align 1, ptr align 8, i64, ptr, i8) unnamed_addr #1

; core::fmt::num::imp::<impl core::fmt::Display for i32>::fmt
; Function Attrs: nonlazybind uwtable
declare zeroext i1 @"_ZN4core3fmt3num3imp52_$LT$impl$u20$core..fmt..Display$u20$for$u20$i32$GT$3fmt17h6d2fdcf80a0ff9afE"(ptr align 4, ptr align 8) unnamed_addr #1

; core::panicking::panic_fmt
; Function Attrs: cold noinline noreturn nonlazybind uwtable
declare void @_ZN4core9panicking9panic_fmt17h0f6ef0178afce4f2E(ptr, ptr align 8) unnamed_addr #3

; Function Attrs: nonlazybind uwtable
declare i32 @rust_eh_personality(i32, i32, i64, ptr, ptr) unnamed_addr #1

; std::io::stdio::_print
; Function Attrs: nonlazybind uwtable
declare void @_ZN3std2io5stdio6_print17h1de311987873daa6E(ptr) unnamed_addr #1

; Function Attrs: nocallback nofree nosync nounwind speculatable willreturn memory(none)
declare { i32, i1 } @llvm.sadd.with.overflow.i32(i32, i32) #4

; Function Attrs: nocallback nofree nosync nounwind willreturn memory(none)
declare i1 @llvm.expect.i1(i1, i1) #5

; core::panicking::panic
; Function Attrs: cold noinline noreturn nonlazybind uwtable
declare void @_ZN4core9panicking5panic17h0ead933cb8f56d66E(ptr align 1, i64, ptr align 8) unnamed_addr #3

; Function Attrs: nonlazybind
define i32 @main(i32 %0, ptr %1) unnamed_addr #6 {
top:
  %2 = sext i32 %0 to i64
; call std::rt::lang_start
  %3 = call i64 @_ZN3std2rt10lang_start17hc1bc80fbbc2f1194E(ptr @_ZN4main4main17hac82363469e1a7a2E, i64 %2, ptr %1, i8 0)
  %4 = trunc i64 %3 to i32
  ret i32 %4
}

attributes #0 = { noinline nonlazybind uwtable "probe-stack"="inline-asm" "target-cpu"="x86-64" }
attributes #1 = { nonlazybind uwtable "probe-stack"="inline-asm" "target-cpu"="x86-64" }
attributes #2 = { inlinehint nonlazybind uwtable "probe-stack"="inline-asm" "target-cpu"="x86-64" }
attributes #3 = { cold noinline noreturn nonlazybind uwtable "probe-stack"="inline-asm" "target-cpu"="x86-64" }
attributes #4 = { nocallback nofree nosync nounwind speculatable willreturn memory(none) }
attributes #5 = { nocallback nofree nosync nounwind willreturn memory(none) }
attributes #6 = { nonlazybind "target-cpu"="x86-64" }
attributes #7 = { noreturn }

!llvm.module.flags = !{!0, !1, !2}

!0 = !{i32 8, !"PIC Level", i32 2}
!1 = !{i32 7, !"PIE Level", i32 2}
!2 = !{i32 2, !"RtLibUseGOT", i32 1}
!3 = !{i32 1443946}
!4 = !{}
!5 = !{i64 1}
!6 = !{i8 0, i8 2}
!7 = !{i64 8}
